target datalayout = "e-m:e-p270:32:32-p271:32:32-p272:64:64-i64:64-i128:128-f80:128-n8:16:32:64-S128"
target triple = "x86_64-pc-linux-gnu"

%struct.SDL_InputMapping = type { i32, i8, i8, i8, i8 }

@.str.81 = private unnamed_addr constant [2 x i8] c",\00", align 1
@.str.117 = private unnamed_addr constant [1 x i8] zeroinitializer, align 1
@.str.442 = private unnamed_addr constant [2 x i8] c":\00", align 1
@.str.443 = private unnamed_addr constant [4 x i8] c"b%u\00", align 1
@.str.444 = private unnamed_addr constant [8 x i8] c"%sa%u%s\00", align 1
@.str.445 = private unnamed_addr constant [2 x i8] c"+\00", align 1
@.str.446 = private unnamed_addr constant [2 x i8] c"-\00", align 1
@.str.447 = private unnamed_addr constant [2 x i8] c"~\00", align 1
@.str.448 = private unnamed_addr constant [7 x i8] c"h%i.%i\00", align 1

; Function Attrs: nounwind uwtable
define internal void @SDL_PrivateAppendToMappingString(ptr noundef %0, i64 noundef %1, ptr noundef %2, ptr noundef %3) #0 {
  %5 = alloca ptr, align 8
  %6 = alloca i64, align 8
  %7 = alloca ptr, align 8
  %8 = alloca ptr, align 8
  %9 = alloca [16 x i8], align 16
  %10 = alloca i32, align 4
  store ptr %0, ptr %5, align 8
  store i64 %1, ptr %6, align 8
  store ptr %2, ptr %7, align 8
  store ptr %3, ptr %8, align 8
  call void @llvm.lifetime.start.p0(i64 16, ptr %9) #8
  %11 = load ptr, ptr %8, align 8
  %12 = getelementptr inbounds nuw %struct.SDL_InputMapping, ptr %11, i32 0, i32 0
  %13 = load i32, ptr %12, align 4
  %14 = icmp eq i32 %13, 0
  br i1 %14, label %15, label %16

15:                                               ; preds = %4
  store i32 1, ptr %10, align 4
  br label %84

16:                                               ; preds = %4
  %17 = load ptr, ptr %5, align 8
  %18 = load ptr, ptr %7, align 8
  %19 = load i64, ptr %6, align 8
  %20 = call i64 @SDL_strlcat_REAL(ptr noundef %17, ptr noundef %18, i64 noundef %19)
  %21 = load ptr, ptr %5, align 8
  %22 = load i64, ptr %6, align 8
  %23 = call i64 @SDL_strlcat_REAL(ptr noundef %21, ptr noundef @.str.442, i64 noundef %22)
  %24 = load ptr, ptr %8, align 8
  %25 = getelementptr inbounds nuw %struct.SDL_InputMapping, ptr %24, i32 0, i32 0
  %26 = load i32, ptr %25, align 4
  switch i32 %26, label %72 [
    i32 1, label %27
    i32 2, label %34
    i32 3, label %59
  ]

27:                                               ; preds = %16
  %28 = getelementptr inbounds [16 x i8], ptr %9, i64 0, i64 0
  %29 = load ptr, ptr %8, align 8
  %30 = getelementptr inbounds nuw %struct.SDL_InputMapping, ptr %29, i32 0, i32 1
  %31 = load i8, ptr %30, align 4
  %32 = zext i8 %31 to i32
  %33 = call i32 (ptr, i64, ptr, ...) @SDL_snprintf_REAL(ptr noundef %28, i64 noundef 16, ptr noundef @.str.443, i32 noundef %32)
  br label %76

34:                                               ; preds = %16
  %35 = getelementptr inbounds [16 x i8], ptr %9, i64 0, i64 0
  %36 = load ptr, ptr %8, align 8
  %37 = getelementptr inbounds nuw %struct.SDL_InputMapping, ptr %36, i32 0, i32 3
  %38 = load i8, ptr %37, align 2, !range !3, !noundef !4
  %39 = trunc i8 %38 to i1
  br i1 %39, label %40, label %41

40:                                               ; preds = %34
  br label %47

41:                                               ; preds = %34
  %42 = load ptr, ptr %8, align 8
  %43 = getelementptr inbounds nuw %struct.SDL_InputMapping, ptr %42, i32 0, i32 4
  %44 = load i8, ptr %43, align 1, !range !3, !noundef !4
  %45 = trunc i8 %44 to i1
  %46 = select i1 %45, ptr @.str.446, ptr @.str.117
  br label %47

47:                                               ; preds = %41, %40
  %48 = phi ptr [ @.str.445, %40 ], [ %46, %41 ]
  %49 = load ptr, ptr %8, align 8
  %50 = getelementptr inbounds nuw %struct.SDL_InputMapping, ptr %49, i32 0, i32 1
  %51 = load i8, ptr %50, align 4
  %52 = zext i8 %51 to i32
  %53 = load ptr, ptr %8, align 8
  %54 = getelementptr inbounds nuw %struct.SDL_InputMapping, ptr %53, i32 0, i32 2
  %55 = load i8, ptr %54, align 1, !range !3, !noundef !4
  %56 = trunc i8 %55 to i1
  %57 = select i1 %56, ptr @.str.447, ptr @.str.117
  %58 = call i32 (ptr, i64, ptr, ...) @SDL_snprintf_REAL(ptr noundef %35, i64 noundef 16, ptr noundef @.str.444, ptr noundef %48, i32 noundef %52, ptr noundef %57)
  br label %76

59:                                               ; preds = %16
  %60 = getelementptr inbounds [16 x i8], ptr %9, i64 0, i64 0
  %61 = load ptr, ptr %8, align 8
  %62 = getelementptr inbounds nuw %struct.SDL_InputMapping, ptr %61, i32 0, i32 1
  %63 = load i8, ptr %62, align 4
  %64 = zext i8 %63 to i32
  %65 = ashr i32 %64, 4
  %66 = load ptr, ptr %8, align 8
  %67 = getelementptr inbounds nuw %struct.SDL_InputMapping, ptr %66, i32 0, i32 1
  %68 = load i8, ptr %67, align 4
  %69 = zext i8 %68 to i32
  %70 = and i32 %69, 15
  %71 = call i32 (ptr, i64, ptr, ...) @SDL_snprintf_REAL(ptr noundef %60, i64 noundef 16, ptr noundef @.str.448, i32 noundef %65, i32 noundef %70)
  br label %76

72:                                               ; preds = %16
  br label %73

73:                                               ; preds = %72
  br label %74

74:                                               ; preds = %73
  br label %75

75:                                               ; preds = %74
  br label %76

76:                                               ; preds = %75, %59, %47, %27
  %77 = load ptr, ptr %5, align 8
  %78 = getelementptr inbounds [16 x i8], ptr %9, i64 0, i64 0
  %79 = load i64, ptr %6, align 8
  %80 = call i64 @SDL_strlcat_REAL(ptr noundef %77, ptr noundef %78, i64 noundef %79)
  %81 = load ptr, ptr %5, align 8
  %82 = load i64, ptr %6, align 8
  %83 = call i64 @SDL_strlcat_REAL(ptr noundef %81, ptr noundef @.str.81, i64 noundef %82)
  store i32 0, ptr %10, align 4
  br label %84

84:                                               ; preds = %76, %15
  call void @llvm.lifetime.end.p0(i64 16, ptr %9) #8
  %85 = load i32, ptr %10, align 4
  switch i32 %85, label %87 [
    i32 0, label %86
    i32 1, label %86
  ]

86:                                               ; preds = %84, %84
  ret void

87:                                               ; preds = %84
  unreachable
}