; Function Attrs: nounwind uwtable
define internal fastcc void @SDL_PrivateAppendToMappingString(ptr noundef nonnull %0, ptr noundef %1, ptr noundef nonnull readonly captures(none) %2) unnamed_addr #0 {
  %4 = alloca [16 x i8], align 16
  call void @llvm.lifetime.start.p0(i64 16, ptr nonnull %4) #10
  %5 = load i32, ptr %2, align 4
  %6 = icmp eq i32 %5, 0
  br i1 %6, label %45, label %7

7:                                                ; preds = %3
  %8 = tail call i64 @SDL_strlcat_REAL(ptr noundef nonnull %0, ptr noundef %1, i64 noundef 1024) #10
  %9 = tail call i64 @SDL_strlcat_REAL(ptr noundef nonnull %0, ptr noundef nonnull @.str.442, i64 noundef 1024) #10
  %10 = load i32, ptr %2, align 4
  switch i32 %10, label %42 [
    i32 1, label %11
    i32 2, label %16
    i32 3, label %35
  ]

11:                                               ; preds = %7
  %12 = getelementptr inbounds nuw i8, ptr %2, i64 4
  %13 = load i8, ptr %12, align 4
  %14 = zext i8 %13 to i32
  %15 = call i32 (ptr, i64, ptr, ...) @SDL_snprintf_REAL(ptr noundef nonnull %4, i64 noundef 16, ptr noundef nonnull @.str.443, i32 noundef %14) #10
  br label %42

16:                                               ; preds = %7
  %17 = getelementptr inbounds nuw i8, ptr %2, i64 6
  %18 = load i8, ptr %17, align 2, !range !23, !noundef !24
  %19 = trunc nuw i8 %18 to i1
  br i1 %19, label %25, label %20

20:                                               ; preds = %16
  %21 = getelementptr inbounds nuw i8, ptr %2, i64 7
  %22 = load i8, ptr %21, align 1, !range !23, !noundef !24
  %23 = trunc nuw i8 %22 to i1
  %24 = select i1 %23, ptr @.str.446, ptr @.str.117
  br label %25

25:                                               ; preds = %16, %20
  %26 = phi ptr [ %24, %20 ], [ @.str.445, %16 ]
  %27 = getelementptr inbounds nuw i8, ptr %2, i64 4
  %28 = load i8, ptr %27, align 4
  %29 = zext i8 %28 to i32
  %30 = getelementptr inbounds nuw i8, ptr %2, i64 5
  %31 = load i8, ptr %30, align 1, !range !23, !noundef !24
  %32 = trunc nuw i8 %31 to i1
  %33 = select i1 %32, ptr @.str.447, ptr @.str.117
  %34 = call i32 (ptr, i64, ptr, ...) @SDL_snprintf_REAL(ptr noundef nonnull %4, i64 noundef 16, ptr noundef nonnull @.str.444, ptr noundef nonnull %26, i32 noundef %29, ptr noundef nonnull %33) #10
  br label %42

35:                                               ; preds = %7
  %36 = getelementptr inbounds nuw i8, ptr %2, i64 4
  %37 = load i8, ptr %36, align 4
  %38 = zext i8 %37 to i32
  %39 = lshr i32 %38, 4
  %40 = and i32 %38, 15
  %41 = call i32 (ptr, i64, ptr, ...) @SDL_snprintf_REAL(ptr noundef nonnull %4, i64 noundef 16, ptr noundef nonnull @.str.448, i32 noundef %39, i32 noundef %40) #10
  br label %42

42:                                               ; preds = %7, %35, %25, %11
  %43 = call i64 @SDL_strlcat_REAL(ptr noundef nonnull %0, ptr noundef nonnull %4, i64 noundef 1024) #10
  %44 = call i64 @SDL_strlcat_REAL(ptr noundef nonnull %0, ptr noundef nonnull @.str.81, i64 noundef 1024) #10
  br label %45

45:                                               ; preds = %3, %42
  call void @llvm.lifetime.end.p0(i64 16, ptr nonnull %4) #10
  ret void
}